; Function Attrs: mustprogress nofree norecurse nosync nounwind willreturn memory(argmem: readwrite) uwtable
define internal range(i32 0, 7) i32 @stream_decoder_memconfig(ptr noundef captures(none) %0, ptr noundef writeonly captures(none) initializes((0, 8)) %1, ptr noundef writeonly captures(none) initializes((0, 8)) %2, i64 noundef %3) #4 {
  %5 = getelementptr inbounds nuw i8, ptr %0, i64 368
  %6 = load i64, ptr %5, align 8, !tbaa !25
  store i64 %6, ptr %1, align 8, !tbaa !23
  %7 = getelementptr inbounds nuw i8, ptr %0, i64 360
  %8 = load i64, ptr %7, align 8, !tbaa !24
  store i64 %8, ptr %2, align 8, !tbaa !23
  %.not = icmp eq i64 %3, 0
  br i1 %.not, label %13, label %9

9:                                                ; preds = %4
  %10 = load i64, ptr %5, align 8, !tbaa !25
  %11 = icmp ult i64 %3, %10
  br i1 %11, label %13, label %12

12:                                               ; preds = %9
  store i64 %3, ptr %7, align 8, !tbaa !24
  br label %13

13:                                               ; preds = %4, %12, %9
  %.0 = phi i32 [ 6, %9 ], [ 0, %12 ], [ 0, %4 ]
  ret i32 %.0
}